target datalayout = "e-m:e-p270:32:32-p271:32:32-p272:64:64-i64:64-i128:128-f80:128-n8:16:32:64-S128"
target triple = "x86_64-pc-linux-gnu"

@stderr = external global ptr, align 8
@.str = private unnamed_addr constant [4 x i8] c"%s\0A\00", align 1
@.str.1 = private unnamed_addr constant [14 x i8] c"Out of memory\00", align 1

; Function Attrs: nounwind uwtable
define ptr @CORD_chars(i8 noundef signext %0, i64 noundef %1) #0 {
  %3 = alloca i8, align 1
  %4 = alloca i64, align 8
  store i8 %0, ptr %3, align 1, !tbaa !8
  store i64 %1, ptr %4, align 8, !tbaa !11
  %5 = load i8, ptr %3, align 1, !tbaa !8
  %6 = zext i8 %5 to i64
  %7 = inttoptr i64 %6 to ptr
  %8 = load i64, ptr %4, align 8, !tbaa !11
  %9 = call ptr @CORD_from_fn(ptr noundef @CORD_nul_func, ptr noundef %7, i64 noundef %8)
  ret ptr %9
}

; Function Attrs: nounwind uwtable
define ptr @CORD_cat_char(ptr noundef %0, i8 noundef signext %1) #0 {
  %3 = alloca ptr, align 8
  %4 = alloca ptr, align 8
  %5 = alloca i8, align 1
  %6 = alloca ptr, align 8
  %7 = alloca i32, align 4
  store ptr %0, ptr %4, align 8, !tbaa !3
  store i8 %1, ptr %5, align 1, !tbaa !8
  call void @llvm.lifetime.start.p0(i64 8, ptr %6) #9
  %8 = load i8, ptr %5, align 1, !tbaa !8
  %9 = sext i8 %8 to i32
  %10 = icmp eq i32 0, %9
  br i1 %10, label %11, label %15

11:                                               ; preds = %2
  %12 = load ptr, ptr %4, align 8, !tbaa !3
  %13 = call ptr @CORD_chars(i8 noundef signext 0, i64 noundef 1)
  %14 = call ptr @CORD_cat(ptr noundef %12, ptr noundef %13)
  store ptr %14, ptr %3, align 8
  store i32 1, ptr %7, align 4
  br label %31

15:                                               ; preds = %2
  %16 = call noalias ptr @GC_malloc_atomic(i64 noundef 2) #10
  store ptr %16, ptr %6, align 8, !tbaa !3
  %17 = load ptr, ptr %6, align 8, !tbaa !3
  %18 = icmp eq ptr null, %17
  br i1 %18, label %19, label %22

19:                                               ; preds = %15
  call void @CORD__call_oom_fn()
  %20 = load ptr, ptr @stderr, align 8, !tbaa !9
  %21 = call i32 (ptr, ptr, ...) @fprintf(ptr noundef %20, ptr noundef @.str, ptr noundef @.str.1) #9
  call void @abort() #11
  unreachable

22:                                               ; preds = %15
  %23 = load i8, ptr %5, align 1, !tbaa !8
  %24 = load ptr, ptr %6, align 8, !tbaa !3
  %25 = getelementptr inbounds i8, ptr %24, i64 0
  store i8 %23, ptr %25, align 1, !tbaa !8
  %26 = load ptr, ptr %6, align 8, !tbaa !3
  %27 = getelementptr inbounds i8, ptr %26, i64 1
  store i8 0, ptr %27, align 1, !tbaa !8
  %28 = load ptr, ptr %4, align 8, !tbaa !3
  %29 = load ptr, ptr %6, align 8, !tbaa !3
  %30 = call ptr @CORD_cat_char_star(ptr noundef %28, ptr noundef %29, i64 noundef 1)
  store ptr %30, ptr %3, align 8
  store i32 1, ptr %7, align 4
  br label %31

31:                                               ; preds = %22, %11
  call void @llvm.lifetime.end.p0(i64 8, ptr %6) #9
  %32 = load ptr, ptr %3, align 8
  ret ptr %32
}