; Function Attrs: nounwind uwtable
define ptr @CORD_cat_char(ptr noundef %0, i8 noundef signext %1) local_unnamed_addr #0 {
  %3 = icmp eq i8 %1, 0
  br i1 %3, label %4, label %7

4:                                                ; preds = %2
  %5 = tail call ptr @CORD_from_fn(ptr noundef nonnull @CORD_nul_func, ptr noundef null, i64 noundef 1) #16
  %6 = tail call ptr @CORD_cat(ptr noundef %0, ptr noundef %5) #16
  br label %16

7:                                                ; preds = %2
  %8 = tail call noalias dereferenceable_or_null(2) ptr @GC_malloc_atomic(i64 noundef 2) #17
  %9 = icmp eq ptr %8, null
  br i1 %9, label %10, label %13

10:                                               ; preds = %7
  tail call void @CORD__call_oom_fn() #16
  %11 = load ptr, ptr @stderr, align 8, !tbaa !3
  %12 = tail call i32 (ptr, ptr, ...) @fprintf(ptr noundef %11, ptr noundef nonnull @.str, ptr noundef nonnull @.str.1) #18
  tail call void @abort() #19
  unreachable

13:                                               ; preds = %7
  store i8 %1, ptr %8, align 1, !tbaa !8
  %14 = getelementptr inbounds nuw i8, ptr %8, i64 1
  store i8 0, ptr %14, align 1, !tbaa !8
  %15 = tail call ptr @CORD_cat_char_star(ptr noundef %0, ptr noundef nonnull %8, i64 noundef 1) #16
  br label %16

16:                                               ; preds = %13, %4
  %.0 = phi ptr [ %6, %4 ], [ %15, %13 ]
  ret ptr %.0
}